; Function Attrs: mustprogress nounwind willreturn uwtable
define void @If_LibLutFree(ptr noundef %0) local_unnamed_addr #6 {
  %2 = icmp eq ptr %0, null
  br i1 %2, label %7, label %3

3:                                                ; preds = %1
  %4 = load ptr, ptr %0, align 8, !tbaa !32
  %.not = icmp eq ptr %4, null
  br i1 %.not, label %6, label %5

5:                                                ; preds = %3
  tail call void @free(ptr noundef nonnull %4) #21
  br label %6

6:                                                ; preds = %5, %3
  tail call void @free(ptr noundef nonnull %0) #21
  br label %7

7:                                                ; preds = %6, %1
  ret void
}